; Function Attrs: nounwind uwtable
define noalias nonnull ptr @l___private_Lean_Data_Lsp_LanguageFeatures_0__Lean_Lsp_hashCompletionItemKind____x40_Lean_Data_Lsp_LanguageFeatures___hyg_1169____boxed(ptr noundef %0) #0 {
  %2 = ptrtoint ptr %0 to i64
  %3 = and i64 %2, 1
  %.not = icmp eq i64 %3, 0
  br i1 %.not, label %4, label %lean_dec.exit

4:                                                ; preds = %1
  %5 = load i32, ptr %0, align 4, !tbaa !8
  %6 = icmp sgt i32 %5, 1
  br i1 %6, label %7, label %9, !prof !11

7:                                                ; preds = %4
  %8 = add nsw i32 %5, -1
  store i32 %8, ptr %0, align 4, !tbaa !8
  br label %lean_dec.exit

9:                                                ; preds = %4
  %.not.i = icmp eq i32 %5, 0
  br i1 %.not.i, label %lean_dec.exit, label %10

10:                                               ; preds = %9
  tail call void @lean_dec_ref_cold(ptr noundef nonnull %0) #9
  br label %lean_dec.exit

lean_dec.exit:                                    ; preds = %10, %9, %7, %1
  tail call void @lean_inc_heartbeat() #9
  %11 = tail call noalias ptr @mi_malloc_small(i64 noundef 16) #9
  %12 = icmp eq ptr %11, null
  br i1 %12, label %13, label %lean_box_uint64.exit

13:                                               ; preds = %lean_dec.exit
  tail call void @lean_internal_panic_out_of_memory() #10
  unreachable

lean_box_uint64.exit:                             ; preds = %lean_dec.exit
  %14 = lshr i64 %2, 1
  %15 = trunc i64 %14 to i8
  %16 = icmp ult i8 %15, 24
  %switch.idx.cast = and i64 %14, 255
  %.0.i = select i1 %16, i64 %switch.idx.cast, i64 24
  %17 = getelementptr inbounds nuw i8, ptr %11, i64 4
  store i32 1, ptr %11, align 4, !tbaa !8
  store i32 16, ptr %17, align 4
  %18 = getelementptr inbounds nuw i8, ptr %11, i64 8
  store i64 %.0.i, ptr %18, align 8, !tbaa !12
  ret ptr %11
}